; Function Attrs: nounwind uwtable
define range(i32 0, 2) i32 @ossl_ec_set_check_group_type_from_name(ptr noundef %0, ptr noundef %1) local_unnamed_addr #0 {
  %3 = icmp eq ptr %1, null
  br i1 %3, label %ec_check_group_type_name2id.exit.thread7, label %.preheader.i

4:                                                ; preds = %.preheader.i
  %5 = add nuw nsw i64 %.079.i, 1
  %exitcond.not.i = icmp eq i64 %5, 3
  br i1 %exitcond.not.i, label %ec_check_group_type_name2id.exit.thread, label %.preheader.i, !llvm.loop !13

.preheader.i:                                     ; preds = %2, %4
  %.079.i = phi i64 [ %5, %4 ], [ 0, %2 ]
  %6 = getelementptr inbounds nuw [3 x %struct.ossl_item_st], ptr @check_group_type_nameid_map, i64 0, i64 %.079.i
  %7 = getelementptr inbounds nuw i8, ptr %6, i64 8
  %8 = load ptr, ptr %7, align 8, !tbaa !5
  %9 = tail call i32 @OPENSSL_strcasecmp(ptr noundef nonnull %1, ptr noundef %8) #4
  %10 = icmp eq i32 %9, 0
  br i1 %10, label %ec_check_group_type_name2id.exit, label %4

ec_check_group_type_name2id.exit:                 ; preds = %.preheader.i
  %11 = load i32, ptr %6, align 16, !tbaa !11
  %12 = icmp eq i32 %11, -1
  br i1 %12, label %ec_check_group_type_name2id.exit.thread, label %ec_check_group_type_name2id.exit.thread7

ec_check_group_type_name2id.exit.thread7:         ; preds = %2, %ec_check_group_type_name2id.exit
  %.0.i9 = phi i32 [ %11, %ec_check_group_type_name2id.exit ], [ 0, %2 ]
  tail call void @EC_KEY_clear_flags(ptr noundef %0, i32 noundef 24576) #4
  tail call void @EC_KEY_set_flags(ptr noundef %0, i32 noundef %.0.i9) #4
  br label %ec_check_group_type_name2id.exit.thread

ec_check_group_type_name2id.exit.thread:          ; preds = %4, %ec_check_group_type_name2id.exit, %ec_check_group_type_name2id.exit.thread7
  %.0 = phi i32 [ 1, %ec_check_group_type_name2id.exit.thread7 ], [ 0, %ec_check_group_type_name2id.exit ], [ 0, %4 ]
  ret i32 %.0
}